; Function Attrs: nofree norecurse nosync nounwind memory(argmem: write) uwtable
define hidden void @BrotliInitZopfliNodes(ptr noundef writeonly captures(none) %0, i64 noundef %1) local_unnamed_addr #0 {
  %.not = icmp eq i64 %1, 0
  br i1 %.not, label %._crit_edge, label %.lr.ph

.lr.ph:                                           ; preds = %2, %.lr.ph
  %.04 = phi i64 [ %4, %.lr.ph ], [ 0, %2 ]
  %3 = getelementptr inbounds nuw %struct.ZopfliNode, ptr %0, i64 %.04
  store i32 1, ptr %3, align 4, !tbaa !3
  %.sroa.4.0..sroa_idx = getelementptr inbounds nuw i8, ptr %3, i64 4
  store i32 0, ptr %.sroa.4.0..sroa_idx, align 4, !tbaa !3
  %.sroa.5.0..sroa_idx = getelementptr inbounds nuw i8, ptr %3, i64 8
  store i32 0, ptr %.sroa.5.0..sroa_idx, align 4, !tbaa !3
  %.sroa.6.0..sroa_idx = getelementptr inbounds nuw i8, ptr %3, i64 12
  store float 0x47DFF933C0000000, ptr %.sroa.6.0..sroa_idx, align 4, !tbaa !7
  %4 = add nuw i64 %.04, 1
  %exitcond.not = icmp eq i64 %4, %1
  br i1 %exitcond.not, label %._crit_edge, label %.lr.ph, !llvm.loop !8

._crit_edge:                                      ; preds = %.lr.ph, %2
  ret void
}